target datalayout = "e-m:e-p270:32:32-p271:32:32-p272:64:64-i64:64-i128:128-f80:128-n8:16:32:64-S128"
target triple = "x86_64-pc-linux-gnu"

$_Z12jdouble_castl = comdat any

$_Z11jfloat_casti = comdat any

$_ZNK11GCArguments12is_supportedEv = comdat any

@_ZL11min_jdouble = internal global double 0.000000e+00, align 8
@_ZL11max_jdouble = internal global double 0.000000e+00, align 8
@_ZL10min_jfloat = internal global float 0.000000e+00, align 4
@_ZL10max_jfloat = internal global float 0.000000e+00, align 4
@_ZTV15SerialArguments = hidden unnamed_addr constant { [10 x ptr] } { [10 x ptr] [ptr null, ptr null, ptr @_ZN12GenArguments21initialize_alignmentsEv, ptr @_ZN12GenArguments31initialize_heap_flags_and_sizesEv, ptr @_ZN12GenArguments20initialize_size_infoEv, ptr @_ZN11GCArguments10initializeEv, ptr @_ZN12GenArguments31conservative_max_heap_alignmentEv, ptr @_ZN11GCArguments30heap_virtual_to_physical_ratioEv, ptr @_ZN15SerialArguments11create_heapEv, ptr @_ZNK11GCArguments12is_supportedEv] }, align 8
@llvm.global_ctors = appending global [1 x { i32, ptr, ptr }] [{ i32, ptr, ptr } { i32 65535, ptr @_GLOBAL__sub_I_serialArguments.cpp, ptr null }]

; Function Attrs: nounwind uwtable
define internal void @__cxx_global_var_init() #0 section ".text.startup" {
  %1 = call noundef double @_Z12jdouble_castl(i64 noundef 1)
  store double %1, ptr @_ZL11min_jdouble, align 8
  ret void
}

; Function Attrs: mustprogress nounwind uwtable
define linkonce_odr hidden noundef double @_Z12jdouble_castl(i64 noundef %0) #1 comdat {
  %2 = alloca i64, align 8
  store i64 %0, ptr %2, align 8
  %3 = load double, ptr %2, align 8
  ret double %3
}

; Function Attrs: nounwind uwtable
define internal void @__cxx_global_var_init.1() #0 section ".text.startup" {
  %1 = call noundef double @_Z12jdouble_castl(i64 noundef 9218868437227405311)
  store double %1, ptr @_ZL11max_jdouble, align 8
  ret void
}

; Function Attrs: nounwind uwtable
define internal void @__cxx_global_var_init.2() #0 section ".text.startup" {
  %1 = call noundef float @_Z11jfloat_casti(i32 noundef 1)
  store float %1, ptr @_ZL10min_jfloat, align 4
  ret void
}

; Function Attrs: mustprogress nounwind uwtable
define linkonce_odr hidden noundef float @_Z11jfloat_casti(i32 noundef %0) #1 comdat {
  %2 = alloca i32, align 4
  store i32 %0, ptr %2, align 4
  %3 = load float, ptr %2, align 4
  ret float %3
}

; Function Attrs: nounwind uwtable
define internal void @__cxx_global_var_init.3() #0 section ".text.startup" {
  %1 = call noundef float @_Z11jfloat_casti(i32 noundef 2139095039)
  store float %1, ptr @_ZL10max_jfloat, align 4
  ret void
}

; Function Attrs: mustprogress nounwind uwtable
define hidden noundef ptr @_ZN15SerialArguments11create_heapEv(ptr noundef nonnull align 8 dereferenceable(8) %0) unnamed_addr #1 align 2 {
  %2 = alloca i64, align 8
  %3 = alloca i8, align 1
  %4 = alloca i64, align 8
  %5 = alloca ptr, align 8
  store ptr %0, ptr %5, align 8
  store i64 192, ptr %4, align 8
  %6 = load i64, ptr %4, align 8
  store i64 %6, ptr %2, align 8
  store i8 5, ptr %3, align 1
  %7 = load i64, ptr %2, align 8
  %8 = load i8, ptr %3, align 1
  %9 = call noundef ptr @_Z12AllocateHeapm8MEMFLAGSN17AllocFailStrategy13AllocFailEnumE(i64 noundef %7, i8 noundef zeroext %8, i32 noundef 0) #3
  call void @_ZN10SerialHeapC1Ev(ptr noundef nonnull align 8 dereferenceable(192) %9)
  ret ptr %9
}

declare void @_ZN10SerialHeapC1Ev(ptr noundef nonnull align 8 dereferenceable(192)) unnamed_addr #2

declare void @_ZN12GenArguments21initialize_alignmentsEv(ptr noundef nonnull align 8 dereferenceable(8)) unnamed_addr #2

declare void @_ZN12GenArguments31initialize_heap_flags_and_sizesEv(ptr noundef nonnull align 8 dereferenceable(8)) unnamed_addr #2

declare void @_ZN12GenArguments20initialize_size_infoEv(ptr noundef nonnull align 8 dereferenceable(8)) unnamed_addr #2

declare void @_ZN11GCArguments10initializeEv(ptr noundef nonnull align 8 dereferenceable(8)) unnamed_addr #2

declare noundef i64 @_ZN12GenArguments31conservative_max_heap_alignmentEv(ptr noundef nonnull align 8 dereferenceable(8)) unnamed_addr #2

declare noundef i64 @_ZN11GCArguments30heap_virtual_to_physical_ratioEv(ptr noundef nonnull align 8 dereferenceable(8)) unnamed_addr #2

; Function Attrs: mustprogress nounwind uwtable
define linkonce_odr hidden noundef zeroext i1 @_ZNK11GCArguments12is_supportedEv(ptr noundef nonnull align 8 dereferenceable(8) %0) unnamed_addr #1 comdat align 2 {
  %2 = alloca ptr, align 8
  store ptr %0, ptr %2, align 8
  ret i1 true
}

declare noundef ptr @_Z12AllocateHeapm8MEMFLAGSN17AllocFailStrategy13AllocFailEnumE(i64 noundef, i8 noundef zeroext, i32 noundef) #2

; Function Attrs: nounwind uwtable
define internal void @_GLOBAL__sub_I_serialArguments.cpp() #0 section ".text.startup" {
  call void @__cxx_global_var_init()
  call void @__cxx_global_var_init.1()
  call void @__cxx_global_var_init.2()
  call void @__cxx_global_var_init.3()
  ret void
}


!llvm.module.flags = !{!0, !1, !2, !3, !4, !5}

!0 = !{i32 7, !"Dwarf Version", i32 5}
!1 = !{i32 2, !"Debug Info Version", i32 3}
!2 = !{i32 1, !"wchar_size", i32 4}
!3 = !{i32 8, !"PIC Level", i32 2}
!4 = !{i32 7, !"uwtable", i32 2}
!5 = !{i32 7, !"frame-pointer", i32 2}
