; ModuleID = 'bench/openjdk/original/serialArguments.ll'
source_filename = "bench/openjdk/original/serialArguments.ll"
target datalayout = "e-m:e-p270:32:32-p271:32:32-p272:64:64-i64:64-i128:128-f80:128-n8:16:32:64-S128"
target triple = "x86_64-pc-linux-gnu"

$_ZNK11GCArguments12is_supportedEv = comdat any

@_ZTV15SerialArguments = hidden unnamed_addr constant { [10 x ptr] } { [10 x ptr] [ptr null, ptr null, ptr @_ZN12GenArguments21initialize_alignmentsEv, ptr @_ZN12GenArguments31initialize_heap_flags_and_sizesEv, ptr @_ZN12GenArguments20initialize_size_infoEv, ptr @_ZN11GCArguments10initializeEv, ptr @_ZN12GenArguments31conservative_max_heap_alignmentEv, ptr @_ZN11GCArguments30heap_virtual_to_physical_ratioEv, ptr @_ZN15SerialArguments11create_heapEv, ptr @_ZNK11GCArguments12is_supportedEv] }, align 8
@llvm.global_ctors = appending global [0 x { i32, ptr, ptr }] zeroinitializer

; Function Attrs: mustprogress nounwind uwtable
define hidden noundef ptr @_ZN15SerialArguments11create_heapEv(ptr nocapture nonnull readnone align 8 %0) unnamed_addr #0 align 2 {
  %2 = tail call noundef ptr @_Z12AllocateHeapm8MEMFLAGSN17AllocFailStrategy13AllocFailEnumE(i64 noundef 192, i8 noundef zeroext 5, i32 noundef 0) #2
  tail call void @_ZN10SerialHeapC1Ev(ptr noundef nonnull align 8 dereferenceable(192) %2) #2
  ret ptr %2
}

declare void @_ZN10SerialHeapC1Ev(ptr noundef nonnull align 8 dereferenceable(192)) unnamed_addr #1

declare void @_ZN12GenArguments21initialize_alignmentsEv(ptr noundef nonnull align 8 dereferenceable(8)) unnamed_addr #1

declare void @_ZN12GenArguments31initialize_heap_flags_and_sizesEv(ptr noundef nonnull align 8 dereferenceable(8)) unnamed_addr #1

declare void @_ZN12GenArguments20initialize_size_infoEv(ptr noundef nonnull align 8 dereferenceable(8)) unnamed_addr #1

declare void @_ZN11GCArguments10initializeEv(ptr noundef nonnull align 8 dereferenceable(8)) unnamed_addr #1

declare noundef i64 @_ZN12GenArguments31conservative_max_heap_alignmentEv(ptr noundef nonnull align 8 dereferenceable(8)) unnamed_addr #1

declare noundef i64 @_ZN11GCArguments30heap_virtual_to_physical_ratioEv(ptr noundef nonnull align 8 dereferenceable(8)) unnamed_addr #1

; Function Attrs: mustprogress nounwind uwtable
define linkonce_odr hidden noundef zeroext i1 @_ZNK11GCArguments12is_supportedEv(ptr noundef nonnull align 8 dereferenceable(8) %0) unnamed_addr #0 comdat align 2 {
  ret i1 true
}

declare noundef ptr @_Z12AllocateHeapm8MEMFLAGSN17AllocFailStrategy13AllocFailEnumE(i64 noundef, i8 noundef zeroext, i32 noundef) local_unnamed_addr #1


!llvm.module.flags = !{!0, !1, !2, !3, !4, !5}

!0 = !{i32 7, !"Dwarf Version", i32 5}
!1 = !{i32 2, !"Debug Info Version", i32 3}
!2 = !{i32 1, !"wchar_size", i32 4}
!3 = !{i32 8, !"PIC Level", i32 2}
!4 = !{i32 7, !"uwtable", i32 2}
!5 = !{i32 7, !"frame-pointer", i32 2}
